target datalayout = "e-m:e-p270:32:32-p271:32:32-p272:64:64-i64:64-i128:128-f80:128-n8:16:32:64-S128"
target triple = "x86_64-pc-linux-gnu"

%class.LogTagSet = type { ptr, i64, [5 x i32], [4 x i8], %class.LogOutputList, %class.LogDecorators, ptr }
%class.LogOutputList = type <{ [6 x ptr], i32, [4 x i8] }>
%class.LogDecorators = type { i32 }
%class.GCLogPreciousHandle = type { %class.LogTargetHandle }
%class.LogTargetHandle = type { i32, ptr }
%class.LogTargetImpl.2 = type { i8 }
%class.LogTargetImpl.6 = type { i8 }

@.str.35 = private unnamed_addr constant [62 x i8] c"***** WARNING! INCORRECT SYSTEM CONFIGURATION DETECTED! *****\00", align 1
@.str.40 = private unnamed_addr constant [27 x i8] c"/proc/sys/vm/max_map_count\00", align 1
@.str.41 = private unnamed_addr constant [2 x i8] c"r\00", align 1
@.str.42 = private unnamed_addr constant [18 x i8] c"Failed to open %s\00", align 1
@.str.43 = private unnamed_addr constant [4 x i8] c"%lu\00", align 1
@.str.44 = private unnamed_addr constant [18 x i8] c"Failed to read %s\00", align 1
@.str.45 = private unnamed_addr constant [89 x i8] c"The system limit on number of memory mappings per process might be too low for the given\00", align 1
@.str.46 = private unnamed_addr constant [60 x i8] c"max Java heap size (%luM). Please adjust %s to allow for at\00", align 1
@.str.47 = private unnamed_addr constant [81 x i8] c"least %lu mappings (current limit is %lu). Continuing execution with the current\00", align 1
@.str.48 = private unnamed_addr constant [93 x i8] c"limit could lead to a premature OutOfMemoryError being thrown, due to failure to map memory.\00", align 1
@_ZN16LogTagSetMappingILN6LogTag4typeE49ELS1_0ELS1_0ELS1_0ELS1_0ELS1_0EE7_tagsetE = linkonce_odr hidden global %class.LogTagSet zeroinitializer, comdat, align 8
@_ZN16LogTagSetMappingILN6LogTag4typeE49ELS1_58ELS1_0ELS1_0ELS1_0ELS1_0EE7_tagsetE = linkonce_odr hidden global %class.LogTagSet zeroinitializer, comdat, align 8

; Function Attrs: mustprogress nounwind uwtable
define linkonce_odr hidden noundef nonnull align 8 dereferenceable(112) ptr @_ZN16LogTagSetMappingILN6LogTag4typeE49ELS1_0ELS1_0ELS1_0ELS1_0ELS1_0EE6tagsetEv() #1 comdat align 2 {
  ret ptr @_ZN16LogTagSetMappingILN6LogTag4typeE49ELS1_0ELS1_0ELS1_0ELS1_0ELS1_0EE7_tagsetE
}

; Function Attrs: mustprogress nounwind uwtable
define linkonce_odr hidden noundef nonnull align 8 dereferenceable(112) ptr @_ZN16LogTagSetMappingILN6LogTag4typeE49ELS1_58ELS1_0ELS1_0ELS1_0ELS1_0EE6tagsetEv() #1 comdat align 2 {
  ret ptr @_ZN16LogTagSetMappingILN6LogTag4typeE49ELS1_58ELS1_0ELS1_0ELS1_0ELS1_0EE7_tagsetE
}

; Function Attrs: mustprogress nounwind uwtable
define linkonce_odr hidden void @_ZN15LogTargetHandleC2ILN8LogLevel4typeE4ELN6LogTag4typeE49ELS4_0ELS4_0ELS4_0ELS4_0ELS4_0EEERK13LogTargetImplIXT_EXT0_EXT1_EXT2_EXT3_EXT4_EXT5_EE(ptr noundef nonnull align 8 dereferenceable(16) %0, ptr noundef nonnull align 1 dereferenceable(1) %1) unnamed_addr #1 comdat align 2 {
  %3 = alloca ptr, align 8
  %4 = alloca ptr, align 8
  store ptr %0, ptr %3, align 8
  store ptr %1, ptr %4, align 8
  %5 = load ptr, ptr %3, align 8
  %6 = getelementptr inbounds %class.LogTargetHandle, ptr %5, i32 0, i32 0
  store i32 4, ptr %6, align 8
  %7 = getelementptr inbounds %class.LogTargetHandle, ptr %5, i32 0, i32 1
  %8 = call noundef nonnull align 8 dereferenceable(112) ptr @_ZN16LogTagSetMappingILN6LogTag4typeE49ELS1_0ELS1_0ELS1_0ELS1_0ELS1_0EE6tagsetEv()
  store ptr %8, ptr %7, align 8
  ret void
}

; Function Attrs: mustprogress nounwind uwtable
define linkonce_odr hidden void @_ZN13LogTargetImplILN8LogLevel4typeE4ELN6LogTag4typeE49ELS3_0ELS3_0ELS3_0ELS3_0ELS3_0EEC2Ev(ptr noundef nonnull align 1 dereferenceable(1) %0) unnamed_addr #1 comdat align 2 {
  %2 = alloca ptr, align 8
  store ptr %0, ptr %2, align 8
  ret void
}

; Function Attrs: mustprogress nounwind uwtable
define linkonce_odr hidden void @_ZN15LogTargetHandleC2ILN8LogLevel4typeE2ELN6LogTag4typeE49ELS4_58ELS4_0ELS4_0ELS4_0ELS4_0EEERK13LogTargetImplIXT_EXT0_EXT1_EXT2_EXT3_EXT4_EXT5_EE(ptr noundef nonnull align 8 dereferenceable(16) %0, ptr noundef nonnull align 1 dereferenceable(1) %1) unnamed_addr #1 comdat align 2 {
  %3 = alloca ptr, align 8
  %4 = alloca ptr, align 8
  store ptr %0, ptr %3, align 8
  store ptr %1, ptr %4, align 8
  %5 = load ptr, ptr %3, align 8
  %6 = getelementptr inbounds %class.LogTargetHandle, ptr %5, i32 0, i32 0
  store i32 2, ptr %6, align 8
  %7 = getelementptr inbounds %class.LogTargetHandle, ptr %5, i32 0, i32 1
  %8 = call noundef nonnull align 8 dereferenceable(112) ptr @_ZN16LogTagSetMappingILN6LogTag4typeE49ELS1_58ELS1_0ELS1_0ELS1_0ELS1_0EE6tagsetEv()
  store ptr %8, ptr %7, align 8
  ret void
}

; Function Attrs: mustprogress nounwind uwtable
define linkonce_odr hidden void @_ZN13LogTargetImplILN8LogLevel4typeE2ELN6LogTag4typeE49ELS3_58ELS3_0ELS3_0ELS3_0ELS3_0EEC2Ev(ptr noundef nonnull align 1 dereferenceable(1) %0) unnamed_addr #1 comdat align 2 {
  %2 = alloca ptr, align 8
  store ptr %0, ptr %2, align 8
  ret void
}

; Function Attrs: mustprogress nounwind uwtable
define linkonce_odr hidden { i32, ptr } @_ZN15LogTargetHandle6createILN8LogLevel4typeE4ELN6LogTag4typeE49ELS4_0ELS4_0ELS4_0ELS4_0ELS4_0EEES_v() #1 comdat align 2 {
  %1 = alloca %class.LogTargetHandle, align 8
  %2 = alloca %class.LogTargetImpl.6, align 1
  call void @_ZN13LogTargetImplILN8LogLevel4typeE4ELN6LogTag4typeE49ELS3_0ELS3_0ELS3_0ELS3_0ELS3_0EEC2Ev(ptr noundef nonnull align 1 dereferenceable(1) %2)
  call void @_ZN15LogTargetHandleC2ILN8LogLevel4typeE4ELN6LogTag4typeE49ELS4_0ELS4_0ELS4_0ELS4_0ELS4_0EEERK13LogTargetImplIXT_EXT0_EXT1_EXT2_EXT3_EXT4_EXT5_EE(ptr noundef nonnull align 8 dereferenceable(16) %1, ptr noundef nonnull align 1 dereferenceable(1) %2)
  %3 = load { i32, ptr }, ptr %1, align 8
  ret { i32, ptr } %3
}

; Function Attrs: mustprogress nounwind uwtable
define linkonce_odr hidden void @_ZN19GCLogPreciousHandleC2E15LogTargetHandle(ptr noundef nonnull align 8 dereferenceable(16) %0, i32 %1, ptr %2) unnamed_addr #1 comdat align 2 {
  %4 = alloca %class.LogTargetHandle, align 8
  %5 = alloca ptr, align 8
  %6 = getelementptr inbounds { i32, ptr }, ptr %4, i32 0, i32 0
  store i32 %1, ptr %6, align 8
  %7 = getelementptr inbounds { i32, ptr }, ptr %4, i32 0, i32 1
  store ptr %2, ptr %7, align 8
  store ptr %0, ptr %5, align 8
  %8 = load ptr, ptr %5, align 8
  %9 = getelementptr inbounds %class.GCLogPreciousHandle, ptr %8, i32 0, i32 0
  call void @llvm.memcpy.p0.p0.i64(ptr align 8 %9, ptr align 8 %4, i64 16, i1 false)
  ret void
}

; Function Attrs: mustprogress nounwind uwtable
define linkonce_odr hidden { i32, ptr } @_ZN15LogTargetHandle6createILN8LogLevel4typeE2ELN6LogTag4typeE49ELS4_58ELS4_0ELS4_0ELS4_0ELS4_0EEES_v() #1 comdat align 2 {
  %1 = alloca %class.LogTargetHandle, align 8
  %2 = alloca %class.LogTargetImpl.2, align 1
  call void @_ZN13LogTargetImplILN8LogLevel4typeE2ELN6LogTag4typeE49ELS3_58ELS3_0ELS3_0ELS3_0ELS3_0EEC2Ev(ptr noundef nonnull align 1 dereferenceable(1) %2)
  call void @_ZN15LogTargetHandleC2ILN8LogLevel4typeE2ELN6LogTag4typeE49ELS4_58ELS4_0ELS4_0ELS4_0ELS4_0EEERK13LogTargetImplIXT_EXT0_EXT1_EXT2_EXT3_EXT4_EXT5_EE(ptr noundef nonnull align 8 dereferenceable(16) %1, ptr noundef nonnull align 1 dereferenceable(1) %2)
  %3 = load { i32, ptr }, ptr %1, align 8
  ret { i32, ptr } %3
}

; Function Attrs: mustprogress nounwind uwtable
define hidden void @_ZNK22XPhysicalMemoryBacking18warn_max_map_countEm(ptr noundef nonnull align 8 dereferenceable(41) %0, i64 noundef %1) #1 align 2 {
  %3 = alloca ptr, align 8
  %4 = alloca i64, align 8
  %5 = alloca ptr, align 8
  %6 = alloca ptr, align 8
  %7 = alloca %class.GCLogPreciousHandle, align 8
  %8 = alloca %class.LogTargetHandle, align 8
  %9 = alloca i64, align 8
  %10 = alloca i32, align 4
  %11 = alloca %class.GCLogPreciousHandle, align 8
  %12 = alloca %class.LogTargetHandle, align 8
  %13 = alloca i64, align 8
  %14 = alloca %class.GCLogPreciousHandle, align 8
  %15 = alloca %class.LogTargetHandle, align 8
  %16 = alloca %class.GCLogPreciousHandle, align 8
  %17 = alloca %class.LogTargetHandle, align 8
  %18 = alloca %class.GCLogPreciousHandle, align 8
  %19 = alloca %class.LogTargetHandle, align 8
  %20 = alloca %class.GCLogPreciousHandle, align 8
  %21 = alloca %class.LogTargetHandle, align 8
  %22 = alloca %class.GCLogPreciousHandle, align 8
  %23 = alloca %class.LogTargetHandle, align 8
  store ptr %0, ptr %3, align 8
  store i64 %1, ptr %4, align 8
  store ptr @.str.40, ptr %5, align 8
  %24 = call noundef ptr @_ZN2os5fopenEPKcS1_(ptr noundef @.str.40, ptr noundef @.str.41)
  store ptr %24, ptr %6, align 8
  %25 = load ptr, ptr %6, align 8
  %26 = icmp eq ptr %25, null
  br i1 %26, label %27, label %37

27:                                               ; preds = %2
  %28 = call { i32, ptr } @_ZN15LogTargetHandle6createILN8LogLevel4typeE2ELN6LogTag4typeE49ELS4_58ELS4_0ELS4_0ELS4_0ELS4_0EEES_v()
  %29 = getelementptr inbounds { i32, ptr }, ptr %8, i32 0, i32 0
  %30 = extractvalue { i32, ptr } %28, 0
  store i32 %30, ptr %29, align 8
  %31 = getelementptr inbounds { i32, ptr }, ptr %8, i32 0, i32 1
  %32 = extractvalue { i32, ptr } %28, 1
  store ptr %32, ptr %31, align 8
  %33 = getelementptr inbounds { i32, ptr }, ptr %8, i32 0, i32 0
  %34 = load i32, ptr %33, align 8
  %35 = getelementptr inbounds { i32, ptr }, ptr %8, i32 0, i32 1
  %36 = load ptr, ptr %35, align 8
  call void @_ZN19GCLogPreciousHandleC2E15LogTargetHandle(ptr noundef nonnull align 8 dereferenceable(16) %7, i32 %34, ptr %36)
  call void (ptr, ptr, ...) @_ZN19GCLogPreciousHandle5writeEPKcz(ptr noundef nonnull align 8 dereferenceable(16) %7, ptr noundef @.str.42, ptr noundef @.str.40)
  br label %114

37:                                               ; preds = %2
  store i64 0, ptr %9, align 8
  %38 = load ptr, ptr %6, align 8
  %39 = call i32 (ptr, ptr, ...) @__isoc99_fscanf(ptr noundef %38, ptr noundef @.str.43, ptr noundef %9)
  store i32 %39, ptr %10, align 4
  %40 = load ptr, ptr %6, align 8
  %41 = call i32 @fclose(ptr noundef %40)
  %42 = load i32, ptr %10, align 4
  %43 = icmp ne i32 %42, 1
  br i1 %43, label %44, label %54

44:                                               ; preds = %37
  %45 = call { i32, ptr } @_ZN15LogTargetHandle6createILN8LogLevel4typeE2ELN6LogTag4typeE49ELS4_58ELS4_0ELS4_0ELS4_0ELS4_0EEES_v()
  %46 = getelementptr inbounds { i32, ptr }, ptr %12, i32 0, i32 0
  %47 = extractvalue { i32, ptr } %45, 0
  store i32 %47, ptr %46, align 8
  %48 = getelementptr inbounds { i32, ptr }, ptr %12, i32 0, i32 1
  %49 = extractvalue { i32, ptr } %45, 1
  store ptr %49, ptr %48, align 8
  %50 = getelementptr inbounds { i32, ptr }, ptr %12, i32 0, i32 0
  %51 = load i32, ptr %50, align 8
  %52 = getelementptr inbounds { i32, ptr }, ptr %12, i32 0, i32 1
  %53 = load ptr, ptr %52, align 8
  call void @_ZN19GCLogPreciousHandleC2E15LogTargetHandle(ptr noundef nonnull align 8 dereferenceable(16) %11, i32 %51, ptr %53)
  call void (ptr, ptr, ...) @_ZN19GCLogPreciousHandle5writeEPKcz(ptr noundef nonnull align 8 dereferenceable(16) %11, ptr noundef @.str.44, ptr noundef @.str.40)
  br label %114

54:                                               ; preds = %37
  %55 = load i64, ptr %4, align 8
  %56 = udiv i64 %55, 2097152
  %57 = mul i64 %56, 3
  %58 = uitofp i64 %57 to double
  %59 = fmul double %58, 1.200000e+00
  %60 = fptoui double %59 to i64
  store i64 %60, ptr %13, align 8
  %61 = load i64, ptr %9, align 8
  %62 = load i64, ptr %13, align 8
  %63 = icmp ult i64 %61, %62
  br i1 %63, label %64, label %114

64:                                               ; preds = %54
  %65 = call { i32, ptr } @_ZN15LogTargetHandle6createILN8LogLevel4typeE4ELN6LogTag4typeE49ELS4_0ELS4_0ELS4_0ELS4_0ELS4_0EEES_v()
  %66 = getelementptr inbounds { i32, ptr }, ptr %15, i32 0, i32 0
  %67 = extractvalue { i32, ptr } %65, 0
  store i32 %67, ptr %66, align 8
  %68 = getelementptr inbounds { i32, ptr }, ptr %15, i32 0, i32 1
  %69 = extractvalue { i32, ptr } %65, 1
  store ptr %69, ptr %68, align 8
  %70 = getelementptr inbounds { i32, ptr }, ptr %15, i32 0, i32 0
  %71 = load i32, ptr %70, align 8
  %72 = getelementptr inbounds { i32, ptr }, ptr %15, i32 0, i32 1
  %73 = load ptr, ptr %72, align 8
  call void @_ZN19GCLogPreciousHandleC2E15LogTargetHandle(ptr noundef nonnull align 8 dereferenceable(16) %14, i32 %71, ptr %73)
  call void (ptr, ptr, ...) @_ZN19GCLogPreciousHandle5writeEPKcz(ptr noundef nonnull align 8 dereferenceable(16) %14, ptr noundef @.str.35)
  %74 = call { i32, ptr } @_ZN15LogTargetHandle6createILN8LogLevel4typeE4ELN6LogTag4typeE49ELS4_0ELS4_0ELS4_0ELS4_0ELS4_0EEES_v()
  %75 = getelementptr inbounds { i32, ptr }, ptr %17, i32 0, i32 0
  %76 = extractvalue { i32, ptr } %74, 0
  store i32 %76, ptr %75, align 8
  %77 = getelementptr inbounds { i32, ptr }, ptr %17, i32 0, i32 1
  %78 = extractvalue { i32, ptr } %74, 1
  store ptr %78, ptr %77, align 8
  %79 = getelementptr inbounds { i32, ptr }, ptr %17, i32 0, i32 0
  %80 = load i32, ptr %79, align 8
  %81 = getelementptr inbounds { i32, ptr }, ptr %17, i32 0, i32 1
  %82 = load ptr, ptr %81, align 8
  call void @_ZN19GCLogPreciousHandleC2E15LogTargetHandle(ptr noundef nonnull align 8 dereferenceable(16) %16, i32 %80, ptr %82)
  call void (ptr, ptr, ...) @_ZN19GCLogPreciousHandle5writeEPKcz(ptr noundef nonnull align 8 dereferenceable(16) %16, ptr noundef @.str.45)
  %83 = call { i32, ptr } @_ZN15LogTargetHandle6createILN8LogLevel4typeE4ELN6LogTag4typeE49ELS4_0ELS4_0ELS4_0ELS4_0ELS4_0EEES_v()
  %84 = getelementptr inbounds { i32, ptr }, ptr %19, i32 0, i32 0
  %85 = extractvalue { i32, ptr } %83, 0
  store i32 %85, ptr %84, align 8
  %86 = getelementptr inbounds { i32, ptr }, ptr %19, i32 0, i32 1
  %87 = extractvalue { i32, ptr } %83, 1
  store ptr %87, ptr %86, align 8
  %88 = getelementptr inbounds { i32, ptr }, ptr %19, i32 0, i32 0
  %89 = load i32, ptr %88, align 8
  %90 = getelementptr inbounds { i32, ptr }, ptr %19, i32 0, i32 1
  %91 = load ptr, ptr %90, align 8
  call void @_ZN19GCLogPreciousHandleC2E15LogTargetHandle(ptr noundef nonnull align 8 dereferenceable(16) %18, i32 %89, ptr %91)
  %92 = load i64, ptr %4, align 8
  %93 = udiv i64 %92, 1048576
  call void (ptr, ptr, ...) @_ZN19GCLogPreciousHandle5writeEPKcz(ptr noundef nonnull align 8 dereferenceable(16) %18, ptr noundef @.str.46, i64 noundef %93, ptr noundef @.str.40)
  %94 = call { i32, ptr } @_ZN15LogTargetHandle6createILN8LogLevel4typeE4ELN6LogTag4typeE49ELS4_0ELS4_0ELS4_0ELS4_0ELS4_0EEES_v()
  %95 = getelementptr inbounds { i32, ptr }, ptr %21, i32 0, i32 0
  %96 = extractvalue { i32, ptr } %94, 0
  store i32 %96, ptr %95, align 8
  %97 = getelementptr inbounds { i32, ptr }, ptr %21, i32 0, i32 1
  %98 = extractvalue { i32, ptr } %94, 1
  store ptr %98, ptr %97, align 8
  %99 = getelementptr inbounds { i32, ptr }, ptr %21, i32 0, i32 0
  %100 = load i32, ptr %99, align 8
  %101 = getelementptr inbounds { i32, ptr }, ptr %21, i32 0, i32 1
  %102 = load ptr, ptr %101, align 8
  call void @_ZN19GCLogPreciousHandleC2E15LogTargetHandle(ptr noundef nonnull align 8 dereferenceable(16) %20, i32 %100, ptr %102)
  %103 = load i64, ptr %13, align 8
  %104 = load i64, ptr %9, align 8
  call void (ptr, ptr, ...) @_ZN19GCLogPreciousHandle5writeEPKcz(ptr noundef nonnull align 8 dereferenceable(16) %20, ptr noundef @.str.47, i64 noundef %103, i64 noundef %104)
  %105 = call { i32, ptr } @_ZN15LogTargetHandle6createILN8LogLevel4typeE4ELN6LogTag4typeE49ELS4_0ELS4_0ELS4_0ELS4_0ELS4_0EEES_v()
  %106 = getelementptr inbounds { i32, ptr }, ptr %23, i32 0, i32 0
  %107 = extractvalue { i32, ptr } %105, 0
  store i32 %107, ptr %106, align 8
  %108 = getelementptr inbounds { i32, ptr }, ptr %23, i32 0, i32 1
  %109 = extractvalue { i32, ptr } %105, 1
  store ptr %109, ptr %108, align 8
  %110 = getelementptr inbounds { i32, ptr }, ptr %23, i32 0, i32 0
  %111 = load i32, ptr %110, align 8
  %112 = getelementptr inbounds { i32, ptr }, ptr %23, i32 0, i32 1
  %113 = load ptr, ptr %112, align 8
  call void @_ZN19GCLogPreciousHandleC2E15LogTargetHandle(ptr noundef nonnull align 8 dereferenceable(16) %22, i32 %111, ptr %113)
  call void (ptr, ptr, ...) @_ZN19GCLogPreciousHandle5writeEPKcz(ptr noundef nonnull align 8 dereferenceable(16) %22, ptr noundef @.str.48)
  br label %114

114:                                              ; preds = %64, %54, %44, %27
  ret void
}