; Function Attrs: mustprogress nounwind uwtable
define hidden void @_ZNK22XPhysicalMemoryBacking18warn_max_map_countEm(ptr nocapture nonnull readnone align 8 %0, i64 noundef %1) local_unnamed_addr #0 align 2 {
  %3 = alloca %class.GCLogPreciousHandle, align 8
  %4 = alloca i64, align 8
  %5 = alloca %class.GCLogPreciousHandle, align 8
  %6 = alloca %class.GCLogPreciousHandle, align 8
  %7 = alloca %class.GCLogPreciousHandle, align 8
  %8 = alloca %class.GCLogPreciousHandle, align 8
  %9 = alloca %class.GCLogPreciousHandle, align 8
  %10 = alloca %class.GCLogPreciousHandle, align 8
  %11 = tail call noundef ptr @_ZN2os5fopenEPKcS1_(ptr noundef nonnull @.str.40, ptr noundef nonnull @.str.41) #12
  %12 = icmp eq ptr %11, null
  br i1 %12, label %13, label %14

13:                                               ; preds = %2
  store i32 2, ptr %3, align 8
  %.sroa.21.0..sroa_idx.i = getelementptr inbounds i8, ptr %3, i64 8
  store ptr @_ZN16LogTagSetMappingILN6LogTag4typeE49ELS1_58ELS1_0ELS1_0ELS1_0ELS1_0EE7_tagsetE, ptr %.sroa.21.0..sroa_idx.i, align 8
  call void (ptr, ptr, ...) @_ZN19GCLogPreciousHandle5writeEPKcz(ptr noundef nonnull align 8 dereferenceable(16) %3, ptr noundef nonnull @.str.42, ptr noundef nonnull @.str.40)
  br label %29

14:                                               ; preds = %2
  store i64 0, ptr %4, align 8
  %15 = call i32 (ptr, ptr, ...) @__isoc99_fscanf(ptr noundef nonnull %11, ptr noundef nonnull @.str.43, ptr noundef nonnull %4) #12
  %16 = call i32 @fclose(ptr noundef nonnull %11)
  %.not = icmp eq i32 %15, 1
  br i1 %.not, label %18, label %17

17:                                               ; preds = %14
  store i32 2, ptr %5, align 8
  %.sroa.21.0..sroa_idx.i20 = getelementptr inbounds i8, ptr %5, i64 8
  store ptr @_ZN16LogTagSetMappingILN6LogTag4typeE49ELS1_58ELS1_0ELS1_0ELS1_0ELS1_0EE7_tagsetE, ptr %.sroa.21.0..sroa_idx.i20, align 8
  call void (ptr, ptr, ...) @_ZN19GCLogPreciousHandle5writeEPKcz(ptr noundef nonnull align 8 dereferenceable(16) %5, ptr noundef nonnull @.str.44, ptr noundef nonnull @.str.40)
  br label %29

18:                                               ; preds = %14
  %19 = lshr i64 %1, 21
  %20 = mul nuw nsw i64 %19, 3
  %21 = uitofp nneg i64 %20 to double
  %22 = fmul double %21, 1.200000e+00
  %23 = fptoui double %22 to i64
  %24 = load i64, ptr %4, align 8
  %25 = icmp ult i64 %24, %23
  br i1 %25, label %26, label %29

26:                                               ; preds = %18
  store i32 4, ptr %6, align 8
  %.sroa.21.0..sroa_idx.i21 = getelementptr inbounds i8, ptr %6, i64 8
  store ptr @_ZN16LogTagSetMappingILN6LogTag4typeE49ELS1_0ELS1_0ELS1_0ELS1_0ELS1_0EE7_tagsetE, ptr %.sroa.21.0..sroa_idx.i21, align 8
  call void (ptr, ptr, ...) @_ZN19GCLogPreciousHandle5writeEPKcz(ptr noundef nonnull align 8 dereferenceable(16) %6, ptr noundef nonnull @.str.35)
  store i32 4, ptr %7, align 8
  %.sroa.21.0..sroa_idx.i22 = getelementptr inbounds i8, ptr %7, i64 8
  store ptr @_ZN16LogTagSetMappingILN6LogTag4typeE49ELS1_0ELS1_0ELS1_0ELS1_0ELS1_0EE7_tagsetE, ptr %.sroa.21.0..sroa_idx.i22, align 8
  call void (ptr, ptr, ...) @_ZN19GCLogPreciousHandle5writeEPKcz(ptr noundef nonnull align 8 dereferenceable(16) %7, ptr noundef nonnull @.str.45)
  store i32 4, ptr %8, align 8
  %.sroa.21.0..sroa_idx.i23 = getelementptr inbounds i8, ptr %8, i64 8
  store ptr @_ZN16LogTagSetMappingILN6LogTag4typeE49ELS1_0ELS1_0ELS1_0ELS1_0ELS1_0EE7_tagsetE, ptr %.sroa.21.0..sroa_idx.i23, align 8
  %27 = lshr i64 %1, 20
  call void (ptr, ptr, ...) @_ZN19GCLogPreciousHandle5writeEPKcz(ptr noundef nonnull align 8 dereferenceable(16) %8, ptr noundef nonnull @.str.46, i64 noundef %27, ptr noundef nonnull @.str.40)
  store i32 4, ptr %9, align 8
  %.sroa.21.0..sroa_idx.i24 = getelementptr inbounds i8, ptr %9, i64 8
  store ptr @_ZN16LogTagSetMappingILN6LogTag4typeE49ELS1_0ELS1_0ELS1_0ELS1_0ELS1_0EE7_tagsetE, ptr %.sroa.21.0..sroa_idx.i24, align 8
  %28 = load i64, ptr %4, align 8
  call void (ptr, ptr, ...) @_ZN19GCLogPreciousHandle5writeEPKcz(ptr noundef nonnull align 8 dereferenceable(16) %9, ptr noundef nonnull @.str.47, i64 noundef %23, i64 noundef %28)
  store i32 4, ptr %10, align 8
  %.sroa.21.0..sroa_idx.i25 = getelementptr inbounds i8, ptr %10, i64 8
  store ptr @_ZN16LogTagSetMappingILN6LogTag4typeE49ELS1_0ELS1_0ELS1_0ELS1_0ELS1_0EE7_tagsetE, ptr %.sroa.21.0..sroa_idx.i25, align 8
  call void (ptr, ptr, ...) @_ZN19GCLogPreciousHandle5writeEPKcz(ptr noundef nonnull align 8 dereferenceable(16) %10, ptr noundef nonnull @.str.48)
  br label %29

29:                                               ; preds = %26, %18, %17, %13
  ret void
}